target datalayout = "e-m:e-p270:32:32-p271:32:32-p272:64:64-i64:64-i128:128-f80:128-n8:16:32:64-S128"
target triple = "x86_64-pc-linux-gnu"

%struct.write_filter_data = type { ptr, i8 }

@.str.11 = private unnamed_addr constant [3 x i8] c"w+\00", align 1
@.str.12 = private unnamed_addr constant [35 x i8] c"Could not open\0A%s\0Afor writing: %s.\00", align 1
@.str.18 = private unnamed_addr constant [48 x i8] c"# This file was created by %s. Edit with care.\0A\00", align 1

; Function Attrs: null_pointer_is_valid sspstrong uwtable
define internal zeroext i1 @write_filters_file(ptr noundef %0, ptr noundef %1, i1 noundef zeroext %2) #0 {
  %4 = alloca ptr, align 8
  %5 = alloca ptr, align 8
  %6 = alloca i8, align 1
  %7 = alloca %struct.write_filter_data, align 8
  store ptr %0, ptr %4, align 8
  store ptr %1, ptr %5, align 8
  %8 = zext i1 %2 to i8
  store i8 %8, ptr %6, align 1
  call void @llvm.lifetime.start.p0(i64 16, ptr %7) #13
  %9 = load ptr, ptr %5, align 8
  %10 = getelementptr inbounds nuw %struct.write_filter_data, ptr %7, i32 0, i32 0
  store ptr %9, ptr %10, align 8
  %11 = load i8, ptr %6, align 1, !range !6, !noundef !7
  %12 = trunc i8 %11 to i1
  %13 = getelementptr inbounds nuw %struct.write_filter_data, ptr %7, i32 0, i32 1
  %14 = zext i1 %12 to i8
  store i8 %14, ptr %13, align 8
  %15 = load ptr, ptr %5, align 8
  %16 = call ptr @application_flavor_name_proper()
  %17 = call i32 (ptr, i32, ptr, ...) @__fprintf_chk(ptr noundef %15, i32 noundef 2, ptr noundef @.str.18, ptr noundef %16)
  %18 = load ptr, ptr %4, align 8
  call void @g_slist_foreach(ptr noundef %18, ptr noundef @write_filter, ptr noundef %7)
  call void @llvm.lifetime.end.p0(i64 16, ptr %7) #13
  ret i1 true
}

; Function Attrs: null_pointer_is_valid sspstrong uwtable
define zeroext i1 @color_filters_export(ptr noundef %0, ptr noundef %1, i1 noundef zeroext %2, ptr noundef %3) #0 {
  %5 = alloca i1, align 1
  %6 = alloca ptr, align 8
  %7 = alloca ptr, align 8
  %8 = alloca i8, align 1
  %9 = alloca ptr, align 8
  %10 = alloca ptr, align 8
  %11 = alloca i32, align 4
  store ptr %0, ptr %6, align 8
  store ptr %1, ptr %7, align 8
  %12 = zext i1 %2 to i8
  store i8 %12, ptr %8, align 1
  store ptr %3, ptr %9, align 8
  call void @llvm.lifetime.start.p0(i64 8, ptr %10) #13
  %13 = load ptr, ptr %6, align 8
  %14 = call noalias ptr @fopen(ptr noundef %13, ptr noundef @.str.11)
  store ptr %14, ptr %10, align 8
  %15 = icmp eq ptr %14, null
  br i1 %15, label %16, label %23

16:                                               ; preds = %4
  %17 = load ptr, ptr %6, align 8
  %18 = call ptr @__errno_location() #17
  %19 = load i32, ptr %18, align 4
  %20 = call ptr @g_strerror(i32 noundef %19) #17
  %21 = call noalias ptr (ptr, ptr, ...) @wmem_strdup_printf(ptr noundef null, ptr noundef @.str.12, ptr noundef %17, ptr noundef %20)
  %22 = load ptr, ptr %9, align 8
  store ptr %21, ptr %22, align 8
  store i1 false, ptr %5, align 1
  store i32 1, ptr %11, align 4
  br label %31

23:                                               ; preds = %4
  %24 = load ptr, ptr %7, align 8
  %25 = load ptr, ptr %10, align 8
  %26 = load i8, ptr %8, align 1, !range !6, !noundef !7
  %27 = trunc i8 %26 to i1
  %28 = call zeroext i1 @write_filters_file(ptr noundef %24, ptr noundef %25, i1 noundef zeroext %27)
  %29 = load ptr, ptr %10, align 8
  %30 = call i32 @fclose(ptr noundef %29)
  store i1 true, ptr %5, align 1
  store i32 1, ptr %11, align 4
  br label %31

31:                                               ; preds = %23, %16
  call void @llvm.lifetime.end.p0(i64 8, ptr %10) #13
  %32 = load i1, ptr %5, align 1
  ret i1 %32
}