; Function Attrs: null_pointer_is_valid sspstrong uwtable
define noundef zeroext i1 @color_filters_export(ptr noundef %0, ptr noundef %1, i1 noundef zeroext %2, ptr noundef writeonly captures(none) %3) local_unnamed_addr #0 {
  %5 = alloca %struct.write_filter_data, align 8
  %6 = tail call noalias ptr @fopen(ptr noundef %0, ptr noundef nonnull @.str.11)
  %7 = icmp ne ptr %6, null
  br i1 %7, label %13, label %8

8:                                                ; preds = %4
  %9 = tail call ptr @__errno_location() #15
  %10 = load i32, ptr %9, align 4
  %11 = tail call ptr @g_strerror(i32 noundef %10) #15
  %12 = tail call noalias ptr (ptr, ptr, ...) @wmem_strdup_printf(ptr noundef null, ptr noundef nonnull @.str.12, ptr noundef %0, ptr noundef %11)
  store ptr %12, ptr %3, align 8
  br label %19

13:                                               ; preds = %4
  %14 = zext i1 %2 to i8
  call void @llvm.lifetime.start.p0(i64 16, ptr nonnull %5) #14
  store ptr %6, ptr %5, align 8
  %15 = getelementptr inbounds nuw i8, ptr %5, i64 8
  store i8 %14, ptr %15, align 8
  %16 = tail call ptr @application_flavor_name_proper()
  %17 = tail call i32 (ptr, i32, ptr, ...) @__fprintf_chk(ptr noundef nonnull %6, i32 noundef 2, ptr noundef nonnull @.str.18, ptr noundef %16)
  call void @g_slist_foreach(ptr noundef %1, ptr noundef nonnull @write_filter, ptr noundef nonnull %5)
  call void @llvm.lifetime.end.p0(i64 16, ptr nonnull %5) #14
  %18 = call i32 @fclose(ptr noundef nonnull %6)
  br label %19

19:                                               ; preds = %13, %8
  ret i1 %7
}